; Function Attrs: mustprogress uwtable
define void @_ZN10OpenSubdiv6v3_6_03Bfr14SurfaceFactoryC2ENS0_3Sdc10SchemeTypeERKNS3_7OptionsERKNS2_7OptionsE(ptr noundef nonnull align 8 captures(none) dereferenceable(56) initializes((0, 32), (33, 35), (44, 56)) %0, i32 noundef %1, ptr noundef nonnull readonly align 1 captures(none) dereferenceable(4) %2, ptr noundef nonnull readonly align 8 captures(none) dereferenceable(19) %3) unnamed_addr #2 align 2 personality ptr @__gxx_personality_v0 {
.noexc:
  store ptr getelementptr inbounds nuw inrange(-16, 88) (i8, ptr @_ZTVN10OpenSubdiv6v3_6_03Bfr14SurfaceFactoryE, i64 16), ptr %0, align 8
  %4 = getelementptr inbounds nuw i8, ptr %0, i64 12
  store i8 0, ptr %4, align 4
  %5 = getelementptr inbounds nuw i8, ptr %0, i64 13
  store i8 5, ptr %5, align 1
  %6 = getelementptr inbounds nuw i8, ptr %0, i64 14
  store i8 0, ptr %6, align 2
  %7 = getelementptr inbounds nuw i8, ptr %0, i64 15
  store i8 0, ptr %7, align 1
  %8 = getelementptr inbounds nuw i8, ptr %0, i64 16
  store i64 -1, ptr %8, align 8
  %9 = getelementptr inbounds nuw i8, ptr %0, i64 24
  store ptr null, ptr %9, align 8
  %10 = getelementptr inbounds nuw i8, ptr %0, i64 32
  %11 = load i8, ptr %10, align 8
  %12 = or i8 %11, 1
  store i8 %12, ptr %10, align 8
  %13 = getelementptr inbounds nuw i8, ptr %0, i64 33
  store i8 2, ptr %13, align 1
  %14 = getelementptr inbounds nuw i8, ptr %0, i64 34
  store i8 6, ptr %14, align 2
  %15 = getelementptr inbounds nuw i8, ptr %0, i64 48
  store ptr null, ptr %15, align 8
  %16 = getelementptr inbounds nuw i8, ptr %0, i64 8
  store i32 %1, ptr %16, align 8
  %17 = load i32, ptr %2, align 1
  store i32 %17, ptr %4, align 4
  %18 = tail call noundef i32 @_ZN10OpenSubdiv6v3_6_03Sdc16SchemeTypeTraits18GetRegularFaceSizeENS1_10SchemeTypeE(i32 noundef %1)
  %19 = getelementptr inbounds nuw i8, ptr %0, i64 44
  store i32 %18, ptr %19, align 4
  %20 = load i32, ptr %16, align 8
  %21 = tail call noundef i32 @_ZN10OpenSubdiv6v3_6_03Sdc16SchemeTypeTraits24GetLocalNeighborhoodSizeENS1_10SchemeTypeE(i32 noundef %20)
  %22 = icmp eq i32 %21, 0
  %23 = getelementptr inbounds nuw i8, ptr %0, i64 40
  %24 = zext i1 %22 to i8
  %25 = load i8, ptr %23, align 8
  %26 = and i8 %25, -32
  %27 = or disjoint i8 %26, %24
  %28 = load i8, ptr %5, align 1
  %29 = icmp eq i8 %28, 5
  %30 = select i1 %22, i1 true, i1 %29
  %31 = select i1 %30, i8 2, i8 0
  %32 = or disjoint i8 %27, %31
  %33 = load i8, ptr %4, align 4
  %34 = icmp ne i8 %33, 0
  %.not5.i = select i1 %22, i1 true, i1 %34
  %35 = select i1 %.not5.i, i8 0, i8 8
  %36 = or disjoint i8 %32, %35
  %37 = load i32, ptr %19, align 4
  %38 = icmp ne i32 %37, 3
  %.not6.i = select i1 %22, i1 true, i1 %38
  %39 = select i1 %.not6.i, i8 0, i8 16
  %.lobit.i = lshr exact i8 %39, 2
  %40 = select i1 %.not5.i, i8 %.lobit.i, i8 4
  %41 = or disjoint i8 %36, %40
  %42 = or disjoint i8 %41, %39
  store i8 %42, ptr %23, align 8
  tail call void @llvm.memcpy.p0.p0.i64(ptr noundef nonnull align 8 dereferenceable(19) %8, ptr noundef nonnull readonly align 8 dereferenceable(19) %3, i64 19, i1 false)
  %43 = load i8, ptr %10, align 8
  %44 = and i8 %43, 1
  %.not2.i = icmp eq i8 %44, 0
  br i1 %.not2.i, label %_ZN10OpenSubdiv6v3_6_03Bfr14SurfaceFactory17setFactoryOptionsERKNS2_7OptionsE.exit, label %45

45:                                               ; preds = %.noexc
  %46 = load ptr, ptr %9, align 8
  %.not.i = icmp eq ptr %46, null
  br i1 %.not.i, label %_ZN10OpenSubdiv6v3_6_03Bfr14SurfaceFactory17setFactoryOptionsERKNS2_7OptionsE.exit, label %47

47:                                               ; preds = %45
  store ptr %46, ptr %15, align 8
  br label %_ZN10OpenSubdiv6v3_6_03Bfr14SurfaceFactory17setFactoryOptionsERKNS2_7OptionsE.exit

_ZN10OpenSubdiv6v3_6_03Bfr14SurfaceFactory17setFactoryOptionsERKNS2_7OptionsE.exit: ; preds = %47, %45, %.noexc
  ret void
}